target datalayout = "e-m:e-p270:32:32-p271:32:32-p272:64:64-i64:64-i128:128-f80:128-n8:16:32:64-S128"
target triple = "x86_64-pc-linux-gnu"

%struct.SDL_AtomicInt = type { i32 }
%struct.SDL_error = type { i32, ptr, i64, ptr, ptr }
%struct.SDL_Thread = type { i64, i64, i32, %struct.SDL_AtomicInt, %struct.SDL_error, ptr, i64, ptr, ptr, ptr, ptr }

@.str.2 = private unnamed_addr constant [59 x i8] c"_beginthreadex/_endthreadex not supported on this platform\00", align 1
@.str.3 = private unnamed_addr constant [33 x i8] c"SDL.thread.create.entry_function\00", align 1
@.str.4 = private unnamed_addr constant [23 x i8] c"SDL.thread.create.name\00", align 1
@.str.5 = private unnamed_addr constant [28 x i8] c"SDL.thread.create.stacksize\00", align 1
@.str.6 = private unnamed_addr constant [27 x i8] c"SDL.thread.create.userdata\00", align 1
@.str.7 = private unnamed_addr constant [30 x i8] c"Thread entry function is NULL\00", align 1

; Function Attrs: nounwind uwtable
define hidden ptr @SDL_CreateThreadWithPropertiesRuntime_REAL(i32 noundef %0, ptr noundef %1, ptr noundef %2) #0 {
  %4 = alloca ptr, align 8
  %5 = alloca i32, align 4
  %6 = alloca ptr, align 8
  %7 = alloca ptr, align 8
  %8 = alloca ptr, align 8
  %9 = alloca ptr, align 8
  %10 = alloca i64, align 8
  %11 = alloca ptr, align 8
  %12 = alloca i32, align 4
  %13 = alloca ptr, align 8
  store i32 %0, ptr %5, align 4
  store ptr %1, ptr %6, align 8
  store ptr %2, ptr %7, align 8
  %14 = load ptr, ptr %6, align 8
  %15 = icmp ne ptr %14, null
  br i1 %15, label %19, label %16

16:                                               ; preds = %3
  %17 = load ptr, ptr %7, align 8
  %18 = icmp ne ptr %17, null
  br i1 %18, label %19, label %21

19:                                               ; preds = %16, %3
  %20 = call zeroext i1 (ptr, ...) @SDL_SetError_REAL(ptr noundef @.str.2)
  store ptr null, ptr %4, align 8
  br label %84

21:                                               ; preds = %16
  call void @llvm.lifetime.start.p0(i64 8, ptr %8) #6
  %22 = load i32, ptr %5, align 4
  %23 = call ptr @SDL_GetPointerProperty_REAL(i32 noundef %22, ptr noundef @.str.3, ptr noundef null)
  store ptr %23, ptr %8, align 8
  call void @llvm.lifetime.start.p0(i64 8, ptr %9) #6
  %24 = load i32, ptr %5, align 4
  %25 = call ptr @SDL_GetStringProperty_REAL(i32 noundef %24, ptr noundef @.str.4, ptr noundef null)
  store ptr %25, ptr %9, align 8
  call void @llvm.lifetime.start.p0(i64 8, ptr %10) #6
  %26 = load i32, ptr %5, align 4
  %27 = call i64 @SDL_GetNumberProperty_REAL(i32 noundef %26, ptr noundef @.str.5, i64 noundef 0)
  store i64 %27, ptr %10, align 8
  call void @llvm.lifetime.start.p0(i64 8, ptr %11) #6
  %28 = load i32, ptr %5, align 4
  %29 = call ptr @SDL_GetPointerProperty_REAL(i32 noundef %28, ptr noundef @.str.6, ptr noundef null)
  store ptr %29, ptr %11, align 8
  %30 = load ptr, ptr %8, align 8
  %31 = icmp ne ptr %30, null
  br i1 %31, label %34, label %32

32:                                               ; preds = %21
  %33 = call zeroext i1 (ptr, ...) @SDL_SetError_REAL(ptr noundef @.str.7)
  store ptr null, ptr %4, align 8
  store i32 1, ptr %12, align 4
  br label %83

34:                                               ; preds = %21
  call void @SDL_InitMainThread()
  call void @llvm.lifetime.start.p0(i64 8, ptr %13) #6
  %35 = call noalias ptr @SDL_calloc_REAL(i64 noundef 1, i64 noundef 112) #8
  store ptr %35, ptr %13, align 8
  %36 = load ptr, ptr %13, align 8
  %37 = icmp ne ptr %36, null
  br i1 %37, label %39, label %38

38:                                               ; preds = %34
  store ptr null, ptr %4, align 8
  store i32 1, ptr %12, align 4
  br label %82

39:                                               ; preds = %34
  %40 = load ptr, ptr %13, align 8
  %41 = getelementptr inbounds nuw %struct.SDL_Thread, ptr %40, i32 0, i32 2
  store i32 -1, ptr %41, align 8
  %42 = load ptr, ptr %13, align 8
  %43 = getelementptr inbounds nuw %struct.SDL_Thread, ptr %42, i32 0, i32 3
  %44 = call i32 @SDL_SetAtomicInt_REAL(ptr noundef %43, i32 noundef 1)
  %45 = load ptr, ptr %9, align 8
  %46 = icmp ne ptr %45, null
  br i1 %46, label %47, label %59

47:                                               ; preds = %39
  %48 = load ptr, ptr %9, align 8
  %49 = call noalias ptr @SDL_strdup_REAL(ptr noundef %48)
  %50 = load ptr, ptr %13, align 8
  %51 = getelementptr inbounds nuw %struct.SDL_Thread, ptr %50, i32 0, i32 5
  store ptr %49, ptr %51, align 8
  %52 = load ptr, ptr %13, align 8
  %53 = getelementptr inbounds nuw %struct.SDL_Thread, ptr %52, i32 0, i32 5
  %54 = load ptr, ptr %53, align 8
  %55 = icmp ne ptr %54, null
  br i1 %55, label %58, label %56

56:                                               ; preds = %47
  %57 = load ptr, ptr %13, align 8
  call void @SDL_free_REAL(ptr noundef %57)
  store ptr null, ptr %4, align 8
  store i32 1, ptr %12, align 4
  br label %82

58:                                               ; preds = %47
  br label %59

59:                                               ; preds = %58, %39
  %60 = load ptr, ptr %8, align 8
  %61 = load ptr, ptr %13, align 8
  %62 = getelementptr inbounds nuw %struct.SDL_Thread, ptr %61, i32 0, i32 7
  store ptr %60, ptr %62, align 8
  %63 = load ptr, ptr %11, align 8
  %64 = load ptr, ptr %13, align 8
  %65 = getelementptr inbounds nuw %struct.SDL_Thread, ptr %64, i32 0, i32 8
  store ptr %63, ptr %65, align 8
  %66 = load i64, ptr %10, align 8
  %67 = load ptr, ptr %13, align 8
  %68 = getelementptr inbounds nuw %struct.SDL_Thread, ptr %67, i32 0, i32 6
  store i64 %66, ptr %68, align 8
  %69 = load ptr, ptr %13, align 8
  call void @SDL_SetObjectValid(ptr noundef %69, i32 noundef 10, i1 noundef zeroext true)
  %70 = load ptr, ptr %13, align 8
  %71 = load ptr, ptr %6, align 8
  %72 = load ptr, ptr %7, align 8
  %73 = call zeroext i1 @SDL_SYS_CreateThread(ptr noundef %70, ptr noundef %71, ptr noundef %72)
  br i1 %73, label %80, label %74

74:                                               ; preds = %59
  %75 = load ptr, ptr %13, align 8
  call void @SDL_SetObjectValid(ptr noundef %75, i32 noundef 10, i1 noundef zeroext false)
  %76 = load ptr, ptr %13, align 8
  %77 = getelementptr inbounds nuw %struct.SDL_Thread, ptr %76, i32 0, i32 5
  %78 = load ptr, ptr %77, align 8
  call void @SDL_free_REAL(ptr noundef %78)
  %79 = load ptr, ptr %13, align 8
  call void @SDL_free_REAL(ptr noundef %79)
  store ptr null, ptr %13, align 8
  br label %80

80:                                               ; preds = %74, %59
  %81 = load ptr, ptr %13, align 8
  store ptr %81, ptr %4, align 8
  store i32 1, ptr %12, align 4
  br label %82

82:                                               ; preds = %80, %56, %38
  call void @llvm.lifetime.end.p0(i64 8, ptr %13) #6
  br label %83

83:                                               ; preds = %82, %32
  call void @llvm.lifetime.end.p0(i64 8, ptr %11) #6
  call void @llvm.lifetime.end.p0(i64 8, ptr %10) #6
  call void @llvm.lifetime.end.p0(i64 8, ptr %9) #6
  call void @llvm.lifetime.end.p0(i64 8, ptr %8) #6
  br label %84

84:                                               ; preds = %83, %19
  %85 = load ptr, ptr %4, align 8
  ret ptr %85
}