; Function Attrs: nounwind uwtable
define hidden noundef ptr @SDL_CreateThreadWithPropertiesRuntime_REAL(i32 noundef %0, ptr noundef readnone captures(address_is_null) %1, ptr noundef readnone captures(address_is_null) %2) local_unnamed_addr #0 {
  %4 = icmp ne ptr %1, null
  %5 = icmp ne ptr %2, null
  %or.cond = or i1 %4, %5
  br i1 %or.cond, label %6, label %8

6:                                                ; preds = %3
  %7 = tail call zeroext i1 (ptr, ...) @SDL_SetError_REAL(ptr noundef nonnull @.str.2) #6
  br label %33

8:                                                ; preds = %3
  %9 = tail call ptr @SDL_GetPointerProperty_REAL(i32 noundef %0, ptr noundef nonnull @.str.3, ptr noundef null) #6
  %10 = tail call ptr @SDL_GetStringProperty_REAL(i32 noundef %0, ptr noundef nonnull @.str.4, ptr noundef null) #6
  %11 = tail call i64 @SDL_GetNumberProperty_REAL(i32 noundef %0, ptr noundef nonnull @.str.5, i64 noundef 0) #6
  %12 = tail call ptr @SDL_GetPointerProperty_REAL(i32 noundef %0, ptr noundef nonnull @.str.6, ptr noundef null) #6
  %.not = icmp eq ptr %9, null
  br i1 %.not, label %13, label %15

13:                                               ; preds = %8
  %14 = tail call zeroext i1 (ptr, ...) @SDL_SetError_REAL(ptr noundef nonnull @.str.7) #6
  br label %33

15:                                               ; preds = %8
  tail call void @SDL_InitMainThread() #6
  %16 = tail call noalias dereferenceable_or_null(112) ptr @SDL_calloc_REAL(i64 noundef 1, i64 noundef 112) #8
  %.not36 = icmp eq ptr %16, null
  br i1 %.not36, label %33, label %17

17:                                               ; preds = %15
  %18 = getelementptr inbounds nuw i8, ptr %16, i64 16
  store i32 -1, ptr %18, align 8
  %19 = getelementptr inbounds nuw i8, ptr %16, i64 20
  %20 = tail call i32 @SDL_SetAtomicInt_REAL(ptr noundef nonnull %19, i32 noundef 1) #6
  %.not37 = icmp eq ptr %10, null
  br i1 %.not37, label %25, label %21

21:                                               ; preds = %17
  %22 = tail call noalias ptr @SDL_strdup_REAL(ptr noundef nonnull %10) #6
  %23 = getelementptr inbounds nuw i8, ptr %16, i64 64
  store ptr %22, ptr %23, align 8
  %.not38 = icmp eq ptr %22, null
  br i1 %.not38, label %24, label %25

24:                                               ; preds = %21
  tail call void @SDL_free_REAL(ptr noundef nonnull %16) #6
  br label %33

25:                                               ; preds = %21, %17
  %26 = getelementptr inbounds nuw i8, ptr %16, i64 80
  store ptr %9, ptr %26, align 8
  %27 = getelementptr inbounds nuw i8, ptr %16, i64 88
  store ptr %12, ptr %27, align 8
  %28 = getelementptr inbounds nuw i8, ptr %16, i64 72
  store i64 %11, ptr %28, align 8
  tail call void @SDL_SetObjectValid(ptr noundef nonnull %16, i32 noundef 10, i1 noundef zeroext true) #6
  %29 = tail call zeroext i1 @SDL_SYS_CreateThread(ptr noundef nonnull %16, ptr noundef null, ptr noundef null) #6
  br i1 %29, label %33, label %30

30:                                               ; preds = %25
  tail call void @SDL_SetObjectValid(ptr noundef nonnull %16, i32 noundef 10, i1 noundef zeroext false) #6
  %31 = getelementptr inbounds nuw i8, ptr %16, i64 64
  %32 = load ptr, ptr %31, align 8
  tail call void @SDL_free_REAL(ptr noundef %32) #6
  tail call void @SDL_free_REAL(ptr noundef nonnull %16) #6
  br label %33

33:                                               ; preds = %13, %25, %30, %15, %24, %6
  %.030 = phi ptr [ null, %6 ], [ null, %13 ], [ null, %24 ], [ null, %15 ], [ %16, %25 ], [ null, %30 ]
  ret ptr %.030
}